; Function Attrs: mustprogress uwtable
define internal noundef i32 @_ZNK12_GLOBAL__N_135grpc_ssl_channel_security_connector3cmpEPK23grpc_security_connector(ptr noundef nonnull align 8 dereferenceable(136) %this, ptr noundef %other_sc) unnamed_addr #3 align 2 {
entry:
  %call = tail call noundef i32 @_ZNK31grpc_channel_security_connector30channel_security_connector_cmpEPKS_(ptr noundef nonnull align 8 dereferenceable(56) %this, ptr noundef %other_sc)
  %cmp.not = icmp eq i32 %call, 0
  br i1 %cmp.not, label %if.end, label %return

if.end:                                           ; preds = %entry
  %target_name_ = getelementptr inbounds i8, ptr %this, i64 64
  %target_name_2 = getelementptr inbounds i8, ptr %other_sc, i64 64
  %call3 = tail call noundef i32 @_ZNKSt7__cxx1112basic_stringIcSt11char_traitsIcESaIcEE7compareERKS4_(ptr noundef nonnull align 8 dereferenceable(32) %target_name_, ptr noundef nonnull align 8 dereferenceable(32) %target_name_2)
  %cmp4.not = icmp eq i32 %call3, 0
  br i1 %cmp4.not, label %if.end6, label %return

if.end6:                                          ; preds = %if.end
  %overridden_target_name_ = getelementptr inbounds i8, ptr %this, i64 96
  %overridden_target_name_7 = getelementptr inbounds i8, ptr %other_sc, i64 96
  %call8 = tail call noundef i32 @_ZNKSt7__cxx1112basic_stringIcSt11char_traitsIcESaIcEE7compareERKS4_(ptr noundef nonnull align 8 dereferenceable(32) %overridden_target_name_, ptr noundef nonnull align 8 dereferenceable(32) %overridden_target_name_7)
  br label %return

return:                                           ; preds = %if.end, %entry, %if.end6
  %retval.0 = phi i32 [ %call8, %if.end6 ], [ %call, %entry ], [ %call3, %if.end ]
  ret i32 %retval.0
}